; Function Attrs: mustprogress nofree norecurse nosync nounwind willreturn memory(argmem: read) uwtable
define range(i64 -2147483648, 2147483648) i64 @OBJ_length(ptr noundef readonly captures(address_is_null) %0) local_unnamed_addr #6 {
  %2 = icmp eq ptr %0, null
  br i1 %2, label %7, label %3

3:                                                ; preds = %1
  %4 = getelementptr inbounds nuw i8, ptr %0, i64 20
  %5 = load i32, ptr %4, align 4, !tbaa !25
  %6 = sext i32 %5 to i64
  br label %7

7:                                                ; preds = %1, %3
  %.0 = phi i64 [ %6, %3 ], [ 0, %1 ]
  ret i64 %.0
}